target datalayout = "e-m:e-p270:32:32-p271:32:32-p272:64:64-i64:64-i128:128-f80:128-n8:16:32:64-S128"
target triple = "x86_64-pc-linux-gnu"

@.str.2 = private unnamed_addr constant [39 x i8] c"timeout is not a float or out of range\00", align 1
@.str.3 = private unnamed_addr constant [24 x i8] c"timeout is out of range\00", align 1
@.str.4 = private unnamed_addr constant [42 x i8] c"timeout is not an integer or out of range\00", align 1
@.str.5 = private unnamed_addr constant [20 x i8] c"timeout is negative\00", align 1

; Function Attrs: nounwind uwtable
define dso_local i32 @getTimeoutFromObjectOrReply(ptr noundef %0, ptr noundef %1, ptr noundef %2, i32 noundef %3) #0 {
  %5 = alloca i32, align 4
  %6 = alloca ptr, align 8
  %7 = alloca ptr, align 8
  %8 = alloca ptr, align 8
  %9 = alloca i32, align 4
  %10 = alloca i64, align 8
  %11 = alloca x86_fp80, align 16
  %12 = alloca i64, align 8
  %13 = alloca i32, align 4
  store ptr %0, ptr %6, align 8, !tbaa !5
  store ptr %1, ptr %7, align 8, !tbaa !69
  store ptr %2, ptr %8, align 8, !tbaa !70
  store i32 %3, ptr %9, align 4, !tbaa !72
  call void @llvm.lifetime.start.p0(i64 8, ptr %10) #5
  call void @llvm.lifetime.start.p0(i64 16, ptr %11) #5
  call void @llvm.lifetime.start.p0(i64 8, ptr %12) #5
  %14 = call i64 @commandTimeSnapshot()
  store i64 %14, ptr %12, align 8, !tbaa !10
  %15 = load i32, ptr %9, align 4, !tbaa !72
  %16 = icmp eq i32 %15, 0
  br i1 %16, label %17, label %34

17:                                               ; preds = %4
  %18 = load ptr, ptr %6, align 8, !tbaa !5
  %19 = load ptr, ptr %7, align 8, !tbaa !69
  %20 = call i32 @getLongDoubleFromObjectOrReply(ptr noundef %18, ptr noundef %19, ptr noundef %11, ptr noundef @.str.2)
  %21 = icmp ne i32 %20, 0
  br i1 %21, label %22, label %23

22:                                               ; preds = %17
  store i32 -1, ptr %5, align 4
  store i32 1, ptr %13, align 4
  br label %63

23:                                               ; preds = %17
  %24 = load x86_fp80, ptr %11, align 16, !tbaa !73
  %25 = fmul x86_fp80 %24, 0xK4008FA00000000000000
  store x86_fp80 %25, ptr %11, align 16, !tbaa !73
  %26 = load x86_fp80, ptr %11, align 16, !tbaa !73
  %27 = fcmp ogt x86_fp80 %26, 0xK403DFFFFFFFFFFFFFFFE
  br i1 %27, label %28, label %30

28:                                               ; preds = %23
  %29 = load ptr, ptr %6, align 8, !tbaa !5
  call void @addReplyError(ptr noundef %29, ptr noundef @.str.3)
  store i32 -1, ptr %5, align 4
  store i32 1, ptr %13, align 4
  br label %63

30:                                               ; preds = %23
  %31 = load x86_fp80, ptr %11, align 16, !tbaa !73
  %32 = call x86_fp80 @llvm.ceil.f80(x86_fp80 %31)
  %33 = fptosi x86_fp80 %32 to i64
  store i64 %33, ptr %10, align 8, !tbaa !10
  br label %41

34:                                               ; preds = %4
  %35 = load ptr, ptr %6, align 8, !tbaa !5
  %36 = load ptr, ptr %7, align 8, !tbaa !69
  %37 = call i32 @getLongLongFromObjectOrReply(ptr noundef %35, ptr noundef %36, ptr noundef %10, ptr noundef @.str.4)
  %38 = icmp ne i32 %37, 0
  br i1 %38, label %39, label %40

39:                                               ; preds = %34
  store i32 -1, ptr %5, align 4
  store i32 1, ptr %13, align 4
  br label %63

40:                                               ; preds = %34
  br label %41

41:                                               ; preds = %40, %30
  %42 = load i64, ptr %10, align 8, !tbaa !10
  %43 = icmp slt i64 %42, 0
  br i1 %43, label %44, label %46

44:                                               ; preds = %41
  %45 = load ptr, ptr %6, align 8, !tbaa !5
  call void @addReplyError(ptr noundef %45, ptr noundef @.str.5)
  store i32 -1, ptr %5, align 4
  store i32 1, ptr %13, align 4
  br label %63

46:                                               ; preds = %41
  %47 = load i64, ptr %10, align 8, !tbaa !10
  %48 = icmp sgt i64 %47, 0
  br i1 %48, label %49, label %60

49:                                               ; preds = %46
  %50 = load i64, ptr %10, align 8, !tbaa !10
  %51 = load i64, ptr %12, align 8, !tbaa !10
  %52 = sub nsw i64 9223372036854775807, %51
  %53 = icmp sgt i64 %50, %52
  br i1 %53, label %54, label %56

54:                                               ; preds = %49
  %55 = load ptr, ptr %6, align 8, !tbaa !5
  call void @addReplyError(ptr noundef %55, ptr noundef @.str.3)
  store i32 -1, ptr %5, align 4
  store i32 1, ptr %13, align 4
  br label %63

56:                                               ; preds = %49
  %57 = load i64, ptr %12, align 8, !tbaa !10
  %58 = load i64, ptr %10, align 8, !tbaa !10
  %59 = add nsw i64 %58, %57
  store i64 %59, ptr %10, align 8, !tbaa !10
  br label %60

60:                                               ; preds = %56, %46
  %61 = load i64, ptr %10, align 8, !tbaa !10
  %62 = load ptr, ptr %8, align 8, !tbaa !70
  store i64 %61, ptr %62, align 8, !tbaa !10
  store i32 0, ptr %5, align 4
  store i32 1, ptr %13, align 4
  br label %63

63:                                               ; preds = %60, %54, %44, %39, %28, %22
  call void @llvm.lifetime.end.p0(i64 8, ptr %12) #5
  call void @llvm.lifetime.end.p0(i64 16, ptr %11) #5
  call void @llvm.lifetime.end.p0(i64 8, ptr %10) #5
  %64 = load i32, ptr %5, align 4
  ret i32 %64
}