; Function Attrs: nounwind uwtable
define dso_local range(i32 -1, 1) i32 @getTimeoutFromObjectOrReply(ptr noundef %0, ptr noundef %1, ptr noundef writeonly captures(none) %2, i32 noundef %3) local_unnamed_addr #0 {
  %5 = alloca i64, align 8
  %6 = alloca x86_fp80, align 16
  call void @llvm.lifetime.start.p0(i64 8, ptr nonnull %5) #4
  call void @llvm.lifetime.start.p0(i64 16, ptr nonnull %6) #4
  %7 = tail call i64 @commandTimeSnapshot() #4
  %8 = icmp eq i32 %3, 0
  br i1 %8, label %9, label %19

9:                                                ; preds = %4
  %10 = call i32 @getLongDoubleFromObjectOrReply(ptr noundef %0, ptr noundef %1, ptr noundef nonnull %6, ptr noundef nonnull @.str.2) #4
  %.not13 = icmp eq i32 %10, 0
  br i1 %.not13, label %11, label %34

11:                                               ; preds = %9
  %12 = load x86_fp80, ptr %6, align 16, !tbaa !59
  %13 = fmul x86_fp80 %12, 0xK4008FA00000000000000
  store x86_fp80 %13, ptr %6, align 16, !tbaa !59
  %14 = fcmp ogt x86_fp80 %13, 0xK403DFFFFFFFFFFFFFFFE
  br i1 %14, label %15, label %16

15:                                               ; preds = %11
  call void @addReplyError(ptr noundef %0, ptr noundef nonnull @.str.3) #4
  br label %34

16:                                               ; preds = %11
  %17 = call x86_fp80 @llvm.ceil.f80(x86_fp80 %13)
  %18 = fptosi x86_fp80 %17 to i64
  store i64 %18, ptr %5, align 8, !tbaa !61
  br label %21

19:                                               ; preds = %4
  %20 = call i32 @getLongLongFromObjectOrReply(ptr noundef %0, ptr noundef %1, ptr noundef nonnull %5, ptr noundef nonnull @.str.4) #4
  %.not = icmp eq i32 %20, 0
  br i1 %.not, label %thread-pre-split, label %34

thread-pre-split:                                 ; preds = %19
  %.pr = load i64, ptr %5, align 8, !tbaa !61
  br label %21

21:                                               ; preds = %thread-pre-split, %16
  %22 = phi i64 [ %.pr, %thread-pre-split ], [ %18, %16 ]
  %23 = icmp slt i64 %22, 0
  br i1 %23, label %24, label %25

24:                                               ; preds = %21
  call void @addReplyError(ptr noundef %0, ptr noundef nonnull @.str.5) #4
  br label %34

25:                                               ; preds = %21
  %.not14 = icmp eq i64 %22, 0
  br i1 %.not14, label %32, label %26

26:                                               ; preds = %25
  %27 = sub nsw i64 9223372036854775807, %7
  %28 = icmp samesign ugt i64 %22, %27
  br i1 %28, label %29, label %30

29:                                               ; preds = %26
  call void @addReplyError(ptr noundef %0, ptr noundef nonnull @.str.3) #4
  br label %34

30:                                               ; preds = %26
  %31 = add nsw i64 %22, %7
  br label %32

32:                                               ; preds = %30, %25
  %33 = phi i64 [ %31, %30 ], [ 0, %25 ]
  store i64 %33, ptr %2, align 8, !tbaa !61
  br label %34

34:                                               ; preds = %19, %9, %32, %29, %24, %15
  %.0 = phi i32 [ -1, %15 ], [ -1, %24 ], [ -1, %29 ], [ 0, %32 ], [ -1, %9 ], [ -1, %19 ]
  call void @llvm.lifetime.end.p0(i64 16, ptr nonnull %6) #4
  call void @llvm.lifetime.end.p0(i64 8, ptr nonnull %5) #4
  ret i32 %.0
}